target datalayout = "e-m:e-p270:32:32-p271:32:32-p272:64:64-i64:64-i128:128-f80:128-n8:16:32:64-S128"
target triple = "x86_64-unknown-linux-gnu"

%struct.OptsVisitor = type { %struct.Visitor, ptr, i32, ptr, i32, ptr, %union.anon, %union.anon, ptr }
%struct.Visitor = type { ptr, ptr, ptr, ptr, ptr, ptr, ptr, ptr, ptr, ptr, ptr, ptr, ptr, ptr, ptr, ptr, ptr, ptr, ptr, ptr, i32, %struct.CompatPolicy, ptr, ptr }
%struct.CompatPolicy = type { i8, i32, i8, i32, i8, i32, i8, i32 }
%union.anon = type { i64 }

@.str.1 = private unnamed_addr constant [28 x i8] c"../qemu/qapi/opts-visitor.c\00", align 1
@.str.5 = private unnamed_addr constant [25 x i8] c"ov->list_mode == LM_NONE\00", align 1
@__PRETTY_FUNCTION__.opts_start_list = private unnamed_addr constant [81 x i8] c"_Bool opts_start_list(Visitor *, const char *, GenericList **, size_t, Error **)\00", align 1
@.str.6 = private unnamed_addr constant [5 x i8] c"list\00", align 1
@__func__.lookup_distinct = private unnamed_addr constant [16 x i8] c"lookup_distinct\00", align 1
@.str.7 = private unnamed_addr constant [26 x i8] c"Parameter '%s' is missing\00", align 1

; Function Attrs: nounwind sspstrong uwtable
define internal ptr @lookup_distinct(ptr noundef %ov, ptr noundef %name, ptr noundef %errp) #0 {
entry:
  %ov.addr = alloca ptr, align 8
  %name.addr = alloca ptr, align 8
  %errp.addr = alloca ptr, align 8
  %list = alloca ptr, align 8
  store ptr %ov, ptr %ov.addr, align 8
  store ptr %name, ptr %name.addr, align 8
  store ptr %errp, ptr %errp.addr, align 8
  %0 = load ptr, ptr %ov.addr, align 8
  %unprocessed_opts = getelementptr inbounds %struct.OptsVisitor, ptr %0, i32 0, i32 3
  %1 = load ptr, ptr %unprocessed_opts, align 8
  %2 = load ptr, ptr %name.addr, align 8
  %call = call ptr @g_hash_table_lookup(ptr noundef %1, ptr noundef %2)
  store ptr %call, ptr %list, align 8
  %3 = load ptr, ptr %list, align 8
  %tobool = icmp ne ptr %3, null
  br i1 %tobool, label %if.end, label %if.then

if.then:                                          ; preds = %entry
  %4 = load ptr, ptr %errp.addr, align 8
  %5 = load ptr, ptr %name.addr, align 8
  call void (ptr, ptr, i32, ptr, ptr, ...) @error_setg_internal(ptr noundef %4, ptr noundef @.str.1, i32 noundef 221, ptr noundef @__func__.lookup_distinct, ptr noundef @.str.7, ptr noundef %5)
  br label %if.end

if.end:                                           ; preds = %if.then, %entry
  %6 = load ptr, ptr %list, align 8
  ret ptr %6
}

; Function Attrs: nounwind sspstrong uwtable
define internal ptr @to_ov(ptr noundef %v) #0 {
entry:
  %v.addr = alloca ptr, align 8
  %__mptr = alloca ptr, align 8
  %tmp = alloca ptr, align 8
  store ptr %v, ptr %v.addr, align 8
  %0 = load ptr, ptr %v.addr, align 8
  store ptr %0, ptr %__mptr, align 8
  %1 = load ptr, ptr %__mptr, align 8
  %add.ptr = getelementptr i8, ptr %1, i64 0
  store ptr %add.ptr, ptr %tmp, align 8
  %2 = load ptr, ptr %tmp, align 8
  ret ptr %2
}

; Function Attrs: nounwind sspstrong uwtable
define internal zeroext i1 @opts_start_list(ptr noundef %v, ptr noundef %name, ptr noundef %list, i64 noundef %size, ptr noundef %errp) #0 {
entry:
  %retval = alloca i1, align 1
  %v.addr = alloca ptr, align 8
  %name.addr = alloca ptr, align 8
  %list.addr = alloca ptr, align 8
  %size.addr = alloca i64, align 8
  %errp.addr = alloca ptr, align 8
  %ov = alloca ptr, align 8
  store ptr %v, ptr %v.addr, align 8
  store ptr %name, ptr %name.addr, align 8
  store ptr %list, ptr %list.addr, align 8
  store i64 %size, ptr %size.addr, align 8
  store ptr %errp, ptr %errp.addr, align 8
  %0 = load ptr, ptr %v.addr, align 8
  %call = call ptr @to_ov(ptr noundef %0)
  store ptr %call, ptr %ov, align 8
  %1 = load ptr, ptr %ov, align 8
  %list_mode = getelementptr inbounds %struct.OptsVisitor, ptr %1, i32 0, i32 4
  %2 = load i32, ptr %list_mode, align 8
  %cmp = icmp eq i32 %2, 0
  br i1 %cmp, label %if.then, label %if.else

if.then:                                          ; preds = %entry
  br label %if.end

if.else:                                          ; preds = %entry
  call void @__assert_fail(ptr noundef @.str.5, ptr noundef @.str.1, i32 noundef 234, ptr noundef @__PRETTY_FUNCTION__.opts_start_list) #7
  unreachable

if.end:                                           ; preds = %if.then
  %3 = load ptr, ptr %list.addr, align 8
  %tobool = icmp ne ptr %3, null
  br i1 %tobool, label %if.then1, label %if.else2

if.then1:                                         ; preds = %if.end
  br label %if.end3

if.else2:                                         ; preds = %if.end
  call void @__assert_fail(ptr noundef @.str.6, ptr noundef @.str.1, i32 noundef 236, ptr noundef @__PRETTY_FUNCTION__.opts_start_list) #7
  unreachable

if.end3:                                          ; preds = %if.then1
  %4 = load ptr, ptr %ov, align 8
  %5 = load ptr, ptr %name.addr, align 8
  %6 = load ptr, ptr %errp.addr, align 8
  %call4 = call ptr @lookup_distinct(ptr noundef %4, ptr noundef %5, ptr noundef %6)
  %7 = load ptr, ptr %ov, align 8
  %repeated_opts = getelementptr inbounds %struct.OptsVisitor, ptr %7, i32 0, i32 5
  store ptr %call4, ptr %repeated_opts, align 8
  %8 = load ptr, ptr %ov, align 8
  %repeated_opts5 = getelementptr inbounds %struct.OptsVisitor, ptr %8, i32 0, i32 5
  %9 = load ptr, ptr %repeated_opts5, align 8
  %tobool6 = icmp ne ptr %9, null
  br i1 %tobool6, label %if.end8, label %if.then7

if.then7:                                         ; preds = %if.end3
  %10 = load ptr, ptr %list.addr, align 8
  store ptr null, ptr %10, align 8
  store i1 false, ptr %retval, align 1
  br label %return

if.end8:                                          ; preds = %if.end3
  %11 = load ptr, ptr %ov, align 8
  %list_mode9 = getelementptr inbounds %struct.OptsVisitor, ptr %11, i32 0, i32 4
  store i32 1, ptr %list_mode9, align 8
  %12 = load i64, ptr %size.addr, align 8
  %call10 = call noalias ptr @g_malloc0(i64 noundef %12) #8
  %13 = load ptr, ptr %list.addr, align 8
  store ptr %call10, ptr %13, align 8
  store i1 true, ptr %retval, align 1
  br label %return

return:                                           ; preds = %if.end8, %if.then7
  %14 = load i1, ptr %retval, align 1
  ret i1 %14
}