; Function Attrs: nounwind sspstrong uwtable
define internal noundef zeroext i1 @opts_start_list(ptr noundef captures(none) %v, ptr noundef %name, ptr noundef writeonly %list, i64 noundef %size, ptr noundef %errp) #0 {
entry:
  %list_mode = getelementptr inbounds nuw i8, ptr %v, i64 240
  %0 = load i32, ptr %list_mode, align 8
  %cmp = icmp eq i32 %0, 0
  br i1 %cmp, label %if.end, label %if.else

if.else:                                          ; preds = %entry
  tail call void @__assert_fail(ptr noundef nonnull @.str.5, ptr noundef nonnull @.str.1, i32 noundef 234, ptr noundef nonnull @__PRETTY_FUNCTION__.opts_start_list) #8
  unreachable

if.end:                                           ; preds = %entry
  %tobool.not = icmp eq ptr %list, null
  br i1 %tobool.not, label %if.else2, label %if.end3

if.else2:                                         ; preds = %if.end
  tail call void @__assert_fail(ptr noundef nonnull @.str.6, ptr noundef nonnull @.str.1, i32 noundef 236, ptr noundef nonnull @__PRETTY_FUNCTION__.opts_start_list) #8
  unreachable

if.end3:                                          ; preds = %if.end
  %1 = getelementptr i8, ptr %v, i64 232
  %call.val = load ptr, ptr %1, align 8
  %call.i = tail call ptr @g_hash_table_lookup(ptr noundef %call.val, ptr noundef %name) #10
  %tobool.not.i = icmp ne ptr %call.i, null
  br i1 %tobool.not.i, label %if.end8, label %lookup_distinct.exit

lookup_distinct.exit:                             ; preds = %if.end3
  tail call void (ptr, ptr, i32, ptr, ptr, ...) @error_setg_internal(ptr noundef %errp, ptr noundef nonnull @.str.1, i32 noundef 221, ptr noundef nonnull @__func__.lookup_distinct, ptr noundef nonnull @.str.7, ptr noundef %name) #10
  %repeated_opts = getelementptr inbounds nuw i8, ptr %v, i64 248
  store ptr null, ptr %repeated_opts, align 8
  br label %return

if.end8:                                          ; preds = %if.end3
  %repeated_opts7 = getelementptr inbounds nuw i8, ptr %v, i64 248
  store ptr %call.i, ptr %repeated_opts7, align 8
  store i32 1, ptr %list_mode, align 8
  %call10 = tail call noalias ptr @g_malloc0(i64 noundef %size) #9
  br label %return

return:                                           ; preds = %lookup_distinct.exit, %if.end8
  %storemerge = phi ptr [ %call10, %if.end8 ], [ null, %lookup_distinct.exit ]
  store ptr %storemerge, ptr %list, align 8
  ret i1 %tobool.not.i
}